; Function Attrs: mustprogress uwtable
define void @_ZN7rocksdb23DeleteUnaccountedDBFileEPKNS_18ImmutableDBOptionsERKNSt7__cxx1112basic_stringIcSt11char_traitsIcESaIcEEESA_bbSt8optionalIiE(ptr dead_on_unwind noalias writable sret(%"class.rocksdb::Status") align 8 %0, ptr noundef readonly captures(none) %1, ptr noundef nonnull align 8 dereferenceable(32) %2, ptr noundef nonnull align 8 dereferenceable(32) %3, i1 noundef zeroext %4, i1 noundef zeroext %5, i64 %6) local_unnamed_addr #4 {
  %8 = getelementptr inbounds nuw i8, ptr %1, i64 40
  %9 = load ptr, ptr %8, align 8, !tbaa !226
  %.not = icmp eq ptr %9, null
  %brmerge = or i1 %5, %.not
  br i1 %brmerge, label %14, label %10

10:                                               ; preds = %7
  %11 = load ptr, ptr %9, align 8, !tbaa !54
  %12 = getelementptr inbounds nuw i8, ptr %11, i64 120
  %13 = load ptr, ptr %12, align 8
  tail call void %13(ptr dead_on_unwind writable sret(%"class.rocksdb::Status") align 8 %0, ptr noundef nonnull align 8 dereferenceable(856) %9, ptr noundef nonnull align 8 dereferenceable(32) %2, ptr noundef nonnull align 8 dereferenceable(32) %3, i1 noundef zeroext %4, i64 %6)
  br label %20

14:                                               ; preds = %7
  %15 = getelementptr inbounds nuw i8, ptr %1, i64 16
  %16 = load ptr, ptr %15, align 8, !tbaa !229
  %17 = load ptr, ptr %16, align 8, !tbaa !54
  %18 = getelementptr inbounds nuw i8, ptr %17, i64 256
  %19 = load ptr, ptr %18, align 8
  tail call void %19(ptr dead_on_unwind writable sret(%"class.rocksdb::Status") align 8 %0, ptr noundef nonnull align 8 dereferenceable(72) %16, ptr noundef nonnull align 8 dereferenceable(32) %2)
  br label %20

20:                                               ; preds = %14, %10
  ret void
}